; Function Attrs: inlinehint nounwind uwtable
define internal fastcc i32 @lv_obj_get_style_space_bottom(ptr noundef %0) unnamed_addr #3 {
  %2 = tail call ptr @lv_obj_get_style_prop(ptr noundef %0, i32 noundef 0, i8 noundef zeroext 17) #8
  %3 = ptrtoint ptr %2 to i64
  %.sroa.0.0.extract.trunc.i = trunc i64 %3 to i32
  %4 = tail call ptr @lv_obj_get_style_prop(ptr noundef %0, i32 noundef 0, i8 noundef zeroext 48) #8
  %5 = ptrtoint ptr %4 to i64
  %.sroa.0.0.extract.trunc.i9 = trunc i64 %5 to i32
  %6 = tail call ptr @lv_obj_get_style_prop(ptr noundef %0, i32 noundef 0, i8 noundef zeroext 52) #8
  %7 = ptrtoint ptr %6 to i64
  %8 = and i64 %7, 1
  %.not = icmp eq i64 %8, 0
  %9 = select i1 %.not, i32 0, i32 %.sroa.0.0.extract.trunc.i9
  %10 = add nsw i32 %9, %.sroa.0.0.extract.trunc.i
  ret i32 %10
}